; ModuleID = '39/2016.c'
source_filename = "39/2016.c"
target datalayout = "e-m:e-p270:32:32-p271:32:32-p272:64:64-i64:64-f80:128-n8:16:32:64-S128"
target triple = "x86_64-pc-linux-gnu"

@.str = private unnamed_addr constant [4 x i8] c"%d\0A\00", align 1
@.str.1 = private unnamed_addr constant [19 x i8] c"%s %d %d %c %c %d\0A\00", align 1
@.str.2 = private unnamed_addr constant [10 x i8] c"%s\0A%d\0A%d\0A\00", align 1

; Function Attrs: noinline nounwind uwtable
define dso_local i32 @main() #0 {
  %1 = alloca i32, align 4
  %2 = alloca i32, align 4
  %3 = alloca i32, align 4
  %4 = alloca i32, align 4
  %5 = alloca i32, align 4
  %6 = alloca i32, align 4
  %7 = alloca i32, align 4
  %8 = alloca i32, align 4
  %9 = alloca [100 x i32], align 16
  %10 = alloca [100 x i32], align 16
  %11 = alloca i8, align 1
  %12 = alloca i8, align 1
  %13 = alloca [20 x i8], align 16
  %14 = alloca [20 x i8], align 16
  store i32 0, i32* %1, align 4
  store i32 0, i32* %7, align 4
  store i32 0, i32* %8, align 4
  %15 = bitcast [100 x i32]* %9 to i8*
  call void @llvm.memset.p0i8.i64(i8* align 16 %15, i8 0, i64 400, i1 false)
  %16 = call i32 (i8*, ...) @__isoc99_scanf(i8* getelementptr inbounds ([4 x i8], [4 x i8]* @.str, i64 0, i64 0), i32* %2)
  store i32 0, i32* %6, align 4
  br label %17

17:                                               ; preds = %107, %0
  %18 = load i32, i32* %6, align 4
  %19 = load i32, i32* %2, align 4
  %20 = icmp slt i32 %18, %19
  br i1 %20, label %21, label %110

21:                                               ; preds = %17
  %22 = getelementptr inbounds [20 x i8], [20 x i8]* %14, i64 0, i64 0
  %23 = call i32 (i8*, ...) @__isoc99_scanf(i8* getelementptr inbounds ([19 x i8], [19 x i8]* @.str.1, i64 0, i64 0), i8* %22, i32* %3, i32* %4, i8* %11, i8* %12, i32* %5)
  %24 = load i32, i32* %6, align 4
  %25 = sext i32 %24 to i64
  %26 = getelementptr inbounds [100 x i32], [100 x i32]* %10, i64 0, i64 %25
  store i32 %23, i32* %26, align 4
  %27 = load i32, i32* %3, align 4
  %28 = icmp sgt i32 %27, 80
  br i1 %28, label %29, label %38

29:                                               ; preds = %21
  %30 = load i32, i32* %5, align 4
  %31 = icmp sgt i32 %30, 0
  br i1 %31, label %32, label %38

32:                                               ; preds = %29
  %33 = load i32, i32* %6, align 4
  %34 = sext i32 %33 to i64
  %35 = getelementptr inbounds [100 x i32], [100 x i32]* %9, i64 0, i64 %34
  %36 = load i32, i32* %35, align 4
  %37 = add nsw i32 %36, 8000
  store i32 %37, i32* %35, align 4
  br label %38

38:                                               ; preds = %32, %29, %21
  %39 = load i32, i32* %3, align 4
  %40 = icmp sgt i32 %39, 85
  br i1 %40, label %41, label %50

41:                                               ; preds = %38
  %42 = load i32, i32* %4, align 4
  %43 = icmp sgt i32 %42, 80
  br i1 %43, label %44, label %50

44:                                               ; preds = %41
  %45 = load i32, i32* %6, align 4
  %46 = sext i32 %45 to i64
  %47 = getelementptr inbounds [100 x i32], [100 x i32]* %9, i64 0, i64 %46
  %48 = load i32, i32* %47, align 4
  %49 = add nsw i32 %48, 4000
  store i32 %49, i32* %47, align 4
  br label %50

50:                                               ; preds = %44, %41, %38
  %51 = load i32, i32* %3, align 4
  %52 = icmp sgt i32 %51, 90
  br i1 %52, label %53, label %59

53:                                               ; preds = %50
  %54 = load i32, i32* %6, align 4
  %55 = sext i32 %54 to i64
  %56 = getelementptr inbounds [100 x i32], [100 x i32]* %9, i64 0, i64 %55
  %57 = load i32, i32* %56, align 4
  %58 = add nsw i32 %57, 2000
  store i32 %58, i32* %56, align 4
  br label %59

59:                                               ; preds = %53, %50
  %60 = load i32, i32* %3, align 4
  %61 = icmp sgt i32 %60, 85
  br i1 %61, label %62, label %72

62:                                               ; preds = %59
  %63 = load i8, i8* %12, align 1
  %64 = sext i8 %63 to i32
  %65 = icmp eq i32 %64, 89
  br i1 %65, label %66, label %72

66:                                               ; preds = %62
  %67 = load i32, i32* %6, align 4
  %68 = sext i32 %67 to i64
  %69 = getelementptr inbounds [100 x i32], [100 x i32]* %9, i64 0, i64 %68
  %70 = load i32, i32* %69, align 4
  %71 = add nsw i32 %70, 1000
  store i32 %71, i32* %69, align 4
  br label %72

72:                                               ; preds = %66, %62, %59
  %73 = load i32, i32* %4, align 4
  %74 = icmp sgt i32 %73, 80
  br i1 %74, label %75, label %85

75:                                               ; preds = %72
  %76 = load i8, i8* %11, align 1
  %77 = sext i8 %76 to i32
  %78 = icmp eq i32 %77, 89
  br i1 %78, label %79, label %85

79:                                               ; preds = %75
  %80 = load i32, i32* %6, align 4
  %81 = sext i32 %80 to i64
  %82 = getelementptr inbounds [100 x i32], [100 x i32]* %9, i64 0, i64 %81
  %83 = load i32, i32* %82, align 4
  %84 = add nsw i32 %83, 850
  store i32 %84, i32* %82, align 4
  br label %85

85:                                               ; preds = %79, %75, %72
  %86 = load i32, i32* %6, align 4
  %87 = sext i32 %86 to i64
  %88 = getelementptr inbounds [100 x i32], [100 x i32]* %9, i64 0, i64 %87
  %89 = load i32, i32* %88, align 4
  %90 = load i32, i32* %8, align 4
  %91 = icmp sgt i32 %89, %90
  br i1 %91, label %92, label %100

92:                                               ; preds = %85
  %93 = load i32, i32* %6, align 4
  %94 = sext i32 %93 to i64
  %95 = getelementptr inbounds [100 x i32], [100 x i32]* %9, i64 0, i64 %94
  %96 = load i32, i32* %95, align 4
  store i32 %96, i32* %8, align 4
  %97 = getelementptr inbounds [20 x i8], [20 x i8]* %13, i64 0, i64 0
  %98 = getelementptr inbounds [20 x i8], [20 x i8]* %14, i64 0, i64 0
  %99 = call i8* @strcpy(i8* %97, i8* %98) #4
  br label %100

100:                                              ; preds = %92, %85
  %101 = load i32, i32* %6, align 4
  %102 = sext i32 %101 to i64
  %103 = getelementptr inbounds [100 x i32], [100 x i32]* %9, i64 0, i64 %102
  %104 = load i32, i32* %103, align 4
  %105 = load i32, i32* %7, align 4
  %106 = add nsw i32 %105, %104
  store i32 %106, i32* %7, align 4
  br label %107

107:                                              ; preds = %100
  %108 = load i32, i32* %6, align 4
  %109 = add nsw i32 %108, 1
  store i32 %109, i32* %6, align 4
  br label %17

110:                                              ; preds = %17
  %111 = getelementptr inbounds [20 x i8], [20 x i8]* %13, i64 0, i64 0
  %112 = load i32, i32* %8, align 4
  %113 = load i32, i32* %7, align 4
  %114 = call i32 (i8*, ...) @printf(i8* getelementptr inbounds ([10 x i8], [10 x i8]* @.str.2, i64 0, i64 0), i8* %111, i32 %112, i32 %113)
  ret i32 0
}

; Function Attrs: argmemonly nounwind willreturn
declare void @llvm.memset.p0i8.i64(i8* nocapture writeonly, i8, i64, i1 immarg) #1

declare dso_local i32 @__isoc99_scanf(i8*, ...) #2

; Function Attrs: nounwind
declare dso_local i8* @strcpy(i8*, i8*) #3

declare dso_local i32 @printf(i8*, ...) #2


!llvm.module.flags = !{!0}
!llvm.ident = !{!1}

!0 = !{i32 1, !"wchar_size", i32 4}
!1 = !{!"clang version 10.0.0-4ubuntu1 "}
